target datalayout = "e-m:e-p270:32:32-p271:32:32-p272:64:64-i64:64-i128:128-f80:128-n8:16:32:64-S128"
target triple = "x86_64-pc-linux-gnu"

; Function Attrs: mustprogress nounwind uwtable
define noundef i32 @_Z10ImHashDataPKvmj(ptr noundef %0, i64 noundef %1, i32 noundef %2) #1 {
  %4 = alloca ptr, align 8
  %5 = alloca i64, align 8
  %6 = alloca i32, align 4
  %7 = alloca i32, align 4
  %8 = alloca ptr, align 8
  %9 = alloca ptr, align 8
  %10 = alloca ptr, align 8
  store ptr %0, ptr %4, align 8, !tbaa !300
  store i64 %1, ptr %5, align 8, !tbaa !297
  store i32 %2, ptr %6, align 4, !tbaa !125
  call void @llvm.lifetime.start.p0(i64 4, ptr %7) #16
  %11 = load i32, ptr %6, align 4, !tbaa !125
  %12 = xor i32 %11, -1
  store i32 %12, ptr %7, align 4, !tbaa !125
  call void @llvm.lifetime.start.p0(i64 8, ptr %8) #16
  %13 = load ptr, ptr %4, align 8, !tbaa !300
  store ptr %13, ptr %8, align 8, !tbaa !261
  call void @llvm.lifetime.start.p0(i64 8, ptr %9) #16
  %14 = load ptr, ptr %4, align 8, !tbaa !300
  %15 = load i64, ptr %5, align 8, !tbaa !297
  %16 = getelementptr inbounds nuw i8, ptr %14, i64 %15
  store ptr %16, ptr %9, align 8, !tbaa !261
  call void @llvm.lifetime.start.p0(i64 8, ptr %10) #16
  store ptr @_ZL17GCrc32LookupTable, ptr %10, align 8, !tbaa !263
  br label %17

17:                                               ; preds = %21, %3
  %18 = load ptr, ptr %8, align 8, !tbaa !261
  %19 = load ptr, ptr %9, align 8, !tbaa !261
  %20 = icmp ult ptr %18, %19
  br i1 %20, label %21, label %36

21:                                               ; preds = %17
  %22 = load i32, ptr %7, align 4, !tbaa !125
  %23 = lshr i32 %22, 8
  %24 = load ptr, ptr %10, align 8, !tbaa !263
  %25 = load i32, ptr %7, align 4, !tbaa !125
  %26 = and i32 %25, 255
  %27 = load ptr, ptr %8, align 8, !tbaa !261
  %28 = getelementptr inbounds nuw i8, ptr %27, i32 1
  store ptr %28, ptr %8, align 8, !tbaa !261
  %29 = load i8, ptr %27, align 1, !tbaa !252
  %30 = zext i8 %29 to i32
  %31 = xor i32 %26, %30
  %32 = zext i32 %31 to i64
  %33 = getelementptr inbounds nuw i32, ptr %24, i64 %32
  %34 = load i32, ptr %33, align 4, !tbaa !125
  %35 = xor i32 %23, %34
  store i32 %35, ptr %7, align 4, !tbaa !125
  br label %17, !llvm.loop !319

36:                                               ; preds = %17
  %37 = load i32, ptr %7, align 4, !tbaa !125
  %38 = xor i32 %37, -1
  call void @llvm.lifetime.end.p0(i64 8, ptr %10) #16
  call void @llvm.lifetime.end.p0(i64 8, ptr %9) #16
  call void @llvm.lifetime.end.p0(i64 8, ptr %8) #16
  call void @llvm.lifetime.end.p0(i64 4, ptr %7) #16
  ret i32 %38
}