; Function Attrs: mustprogress nofree norecurse nosync nounwind willreturn memory(argmem: read) uwtable
define noundef i32 @_Z10ImHashDataPKvmj(ptr noundef readonly %0, i64 noundef %1, i32 noundef %2) local_unnamed_addr #17 {
  %4 = getelementptr inbounds nuw i8, ptr %0, i64 %1
  %.not = icmp eq i64 %1, 0
  br i1 %.not, label %._crit_edge, label %.lr.ph.preheader

.lr.ph.preheader:                                 ; preds = %3
  %5 = xor i32 %2, -1
  br label %.lr.ph

.lr.ph:                                           ; preds = %.lr.ph.preheader, %.lr.ph
  %.012 = phi i32 [ %15, %.lr.ph ], [ %5, %.lr.ph.preheader ]
  %.01011 = phi ptr [ %8, %.lr.ph ], [ %0, %.lr.ph.preheader ]
  %6 = lshr i32 %.012, 8
  %7 = and i32 %.012, 255
  %8 = getelementptr inbounds nuw i8, ptr %.01011, i64 1
  %9 = load i8, ptr %.01011, align 1, !tbaa !211
  %10 = zext i8 %9 to i32
  %11 = xor i32 %7, %10
  %12 = zext nneg i32 %11 to i64
  %13 = getelementptr inbounds nuw i32, ptr @_ZL17GCrc32LookupTable, i64 %12
  %14 = load i32, ptr %13, align 4, !tbaa !226
  %15 = xor i32 %14, %6
  %16 = icmp ult ptr %8, %4
  br i1 %16, label %.lr.ph, label %._crit_edge.loopexit, !llvm.loop !265

._crit_edge.loopexit:                             ; preds = %.lr.ph
  %17 = xor i32 %15, -1
  br label %._crit_edge

._crit_edge:                                      ; preds = %._crit_edge.loopexit, %3
  %.0.lcssa = phi i32 [ %2, %3 ], [ %17, %._crit_edge.loopexit ]
  ret i32 %.0.lcssa
}